; Function Attrs: nofree nounwind uwtable
define noalias noundef ptr @Abc_ZddManAlloc(i32 noundef %0, i32 noundef %1) local_unnamed_addr #0 {
  %3 = tail call noalias dereferenceable_or_null(96) ptr @calloc(i64 noundef 1, i64 noundef 96) #21
  store i32 %0, ptr %3, align 8, !tbaa !29
  %4 = getelementptr inbounds nuw i8, ptr %3, i64 8
  store i32 %1, ptr %4, align 8, !tbaa !25
  %5 = icmp ult i32 %1, 2
  %6 = add i32 %1, -1
  %7 = tail call range(i32 0, 33) i32 @llvm.ctlz.i32(i32 %6, i1 true)
  %8 = sub nuw nsw i32 32, %7
  %.09.i = select i1 %5, i32 %1, i32 %8
  %notmask = shl nsw i32 -1, %.09.i
  %9 = xor i32 %notmask, -1
  %10 = getelementptr inbounds nuw i8, ptr %3, i64 16
  store i32 %9, ptr %10, align 8, !tbaa !17
  %11 = getelementptr inbounds nuw i8, ptr %3, i64 20
  store i32 %9, ptr %11, align 4, !tbaa !30
  %12 = sub i32 0, %notmask
  %13 = zext i32 %12 to i64
  %14 = tail call noalias ptr @calloc(i64 noundef %13, i64 noundef 4) #21
  %15 = getelementptr inbounds nuw i8, ptr %3, i64 24
  store ptr %14, ptr %15, align 8, !tbaa !10
  %16 = sext i32 %1 to i64
  %17 = tail call noalias ptr @calloc(i64 noundef %16, i64 noundef 4) #21
  %18 = getelementptr inbounds nuw i8, ptr %3, i64 32
  store ptr %17, ptr %18, align 8, !tbaa !22
  %19 = tail call noalias ptr @calloc(i64 noundef %13, i64 noundef 16) #21
  %20 = getelementptr inbounds nuw i8, ptr %3, i64 40
  store ptr %19, ptr %20, align 8, !tbaa !31
  %21 = tail call noalias ptr @calloc(i64 noundef %16, i64 noundef 12) #21
  %22 = getelementptr inbounds nuw i8, ptr %3, i64 48
  store ptr %21, ptr %22, align 8, !tbaa !18
  %23 = getelementptr inbounds nuw i8, ptr %3, i64 4
  store i32 2, ptr %23, align 4, !tbaa !24
  %24 = getelementptr inbounds nuw i8, ptr %21, i64 4
  tail call void @llvm.memset.p0.i64(ptr noundef nonnull align 4 dereferenceable(24) %24, i8 -1, i64 20, i1 false)
  %25 = or i32 %0, -2147483648
  store i32 %25, ptr %21, align 4
  %26 = getelementptr inbounds nuw i8, ptr %21, i64 12
  %27 = or i32 %0, -2147483648
  store i32 %27, ptr %26, align 4
  %28 = icmp sgt i32 %0, 0
  br i1 %28, label %.lr.ph, label %._crit_edge

.lr.ph:                                           ; preds = %2, %Abc_ZddUniqueCreate.exit
  %29 = phi i32 [ %68, %Abc_ZddUniqueCreate.exit ], [ 2, %2 ]
  %.035 = phi i32 [ %69, %Abc_ZddUniqueCreate.exit ], [ 0, %2 ]
  %30 = mul nuw nsw i32 %.035, 12582917
  %31 = add nuw nsw i32 %30, 4256249
  %32 = and i32 %31, %9
  %33 = zext nneg i32 %32 to i64
  %34 = getelementptr inbounds nuw i32, ptr %14, i64 %33
  %35 = load i32, ptr %34, align 4, !tbaa !3
  %.not41.i = icmp eq i32 %35, 0
  br i1 %.not41.i, label %._crit_edge.i, label %.lr.ph.i

.lr.ph.i:                                         ; preds = %.lr.ph, %50
  %36 = phi i32 [ %52, %50 ], [ %35, %.lr.ph ]
  %37 = sext i32 %36 to i64
  %38 = getelementptr inbounds %struct.Abc_ZddObj_, ptr %21, i64 %37
  %39 = load i32, ptr %38, align 4
  %40 = and i32 %39, 2147483647
  %41 = icmp eq i32 %40, %.035
  br i1 %41, label %42, label %50

42:                                               ; preds = %.lr.ph.i
  %43 = getelementptr inbounds nuw i8, ptr %38, i64 4
  %44 = load i32, ptr %43, align 4, !tbaa !19
  %45 = icmp eq i32 %44, 1
  br i1 %45, label %46, label %50

46:                                               ; preds = %42
  %47 = getelementptr inbounds nuw i8, ptr %38, i64 8
  %48 = load i32, ptr %47, align 4, !tbaa !21
  %49 = icmp eq i32 %48, 0
  br i1 %49, label %Abc_ZddUniqueCreate.exit, label %50

50:                                               ; preds = %46, %42, %.lr.ph.i
  %51 = getelementptr inbounds i32, ptr %17, i64 %37
  %52 = load i32, ptr %51, align 4, !tbaa !3
  %.not.i = icmp eq i32 %52, 0
  br i1 %.not.i, label %._crit_edge.i.loopexit, label %.lr.ph.i, !llvm.loop !23

._crit_edge.i.loopexit:                           ; preds = %50
  %53 = getelementptr inbounds i32, ptr %17, i64 %37
  br label %._crit_edge.i

._crit_edge.i:                                    ; preds = %._crit_edge.i.loopexit, %.lr.ph
  %.0.lcssa.i = phi ptr [ %34, %.lr.ph ], [ %53, %._crit_edge.i.loopexit ]
  %54 = icmp eq i32 %29, %1
  br i1 %54, label %55, label %59

55:                                               ; preds = %._crit_edge.i
  %56 = tail call i32 (ptr, ...) @printf(ptr noundef nonnull dereferenceable(1) @.str.16, i32 noundef %1)
  %57 = load ptr, ptr @stdout, align 8, !tbaa !26
  %58 = tail call i32 @fflush(ptr noundef %57)
  br label %59

59:                                               ; preds = %55, %._crit_edge.i
  %60 = add nsw i32 %29, 1
  store i32 %60, ptr %23, align 4, !tbaa !24
  store i32 %29, ptr %.0.lcssa.i, align 4, !tbaa !3
  %61 = sext i32 %29 to i64
  %62 = getelementptr inbounds %struct.Abc_ZddObj_, ptr %21, i64 %61
  %63 = load i32, ptr %62, align 4
  %64 = and i32 %63, -2147483648
  %65 = or disjoint i32 %64, %.035
  store i32 %65, ptr %62, align 4
  %66 = getelementptr inbounds %struct.Abc_ZddObj_, ptr %21, i64 %61, i32 1
  store i32 1, ptr %66, align 4, !tbaa !19
  %67 = getelementptr inbounds %struct.Abc_ZddObj_, ptr %21, i64 %61, i32 2
  store i32 0, ptr %67, align 4, !tbaa !21
  br label %Abc_ZddUniqueCreate.exit

Abc_ZddUniqueCreate.exit:                         ; preds = %46, %59
  %68 = phi i32 [ %60, %59 ], [ %29, %46 ]
  %69 = add nuw nsw i32 %.035, 1
  %exitcond.not = icmp eq i32 %69, %0
  br i1 %exitcond.not, label %._crit_edge, label %.lr.ph, !llvm.loop !32

._crit_edge:                                      ; preds = %Abc_ZddUniqueCreate.exit, %2
  %narrow = sub i32 24, %notmask
  %70 = zext i32 %narrow to i64
  %71 = shl nuw nsw i64 %13, 2
  %72 = mul nsw i64 %16, 12
  %73 = lshr exact i64 %72, 2
  %74 = add nsw i64 %73, %16
  %75 = add nsw i64 %74, %70
  %76 = add nsw i64 %75, %71
  %77 = getelementptr inbounds nuw i8, ptr %3, i64 64
  store i64 %76, ptr %77, align 8, !tbaa !33
  ret ptr %3
}